; Function Attrs: mustprogress uwtable
define void @_Z18SetFileHeaderExtraP11CommandDataR7ArchivePw(ptr noundef readonly captures(none) %0, ptr noundef nonnull align 8 dereferenceable(57108) %1, ptr noundef %2) local_unnamed_addr #0 {
  %4 = getelementptr inbounds nuw i8, ptr %0, i64 57488
  %5 = load i8, ptr %4, align 8, !tbaa !92, !range !32, !noundef !33
  %6 = trunc nuw i8 %5 to i1
  %7 = getelementptr inbounds nuw i8, ptr %1, i64 48840
  %8 = load i32, ptr %7, align 8
  %9 = icmp eq i32 %8, 3
  %or.cond = select i1 %6, i1 %9, i1 false
  br i1 %or.cond, label %10, label %15

10:                                               ; preds = %3
  %11 = getelementptr inbounds nuw i8, ptr %1, i64 30637
  %12 = load i8, ptr %11, align 1, !tbaa !93, !range !32, !noundef !33
  %13 = trunc nuw i8 %12 to i1
  br i1 %13, label %14, label %15

14:                                               ; preds = %10
  tail call void @_Z12SetUnixOwnerR7ArchivePKw(ptr noundef nonnull align 8 dereferenceable(57108) %1, ptr noundef %2)
  br label %15

15:                                               ; preds = %14, %10, %3
  ret void
}